target datalayout = "e-m:e-p270:32:32-p271:32:32-p272:64:64-i64:64-i128:128-f80:128-n8:16:32:64-S128"
target triple = "x86_64-pc-linux-gnu"

%struct.gmx_ana_selmethod_t = type { ptr, i32, i32, i32, ptr, ptr, ptr, ptr, ptr, ptr, ptr, ptr, ptr, %struct.gmx_ana_selmethod_help_t }
%struct.gmx_ana_selmethod_help_t = type { ptr, ptr, i32, ptr }
%struct.gmx_ana_index_t = type { i32, ptr, i32 }
%struct.t_methoddata_kweval = type { ptr, ptr, %struct.gmx_ana_index_t, %struct.gmx_ana_pos_t }
%struct.gmx_ana_pos_t = type <{ ptr, ptr, ptr, %struct.gmx_ana_indexmap_t, i32, [4 x i8] }>
%struct.gmx_ana_indexmap_t = type { i32, ptr, ptr, %struct.t_blocka, ptr, %struct.t_blocka, i8 }
%struct.t_blocka = type { i32, ptr, i32, ptr, i32, i32 }

; Function Attrs: mustprogress uwtable
define internal void @_ZL15evaluate_kwevalRKN3gmx20SelMethodEvalContextEP15gmx_ana_index_tP18gmx_ana_selvalue_tPv(ptr noundef nonnull align 8 dereferenceable(24) %0, ptr noundef %1, ptr noundef %2, ptr noundef %3) #0 {
  %5 = alloca ptr, align 8
  %6 = alloca ptr, align 8
  %7 = alloca ptr, align 8
  %8 = alloca ptr, align 8
  %9 = alloca ptr, align 8
  store ptr %0, ptr %5, align 8, !tbaa !27
  store ptr %1, ptr %6, align 8, !tbaa !29
  store ptr %2, ptr %7, align 8, !tbaa !31
  store ptr %3, ptr %8, align 8, !tbaa !15
  call void @llvm.lifetime.start.p0(i64 8, ptr %9) #22
  %10 = load ptr, ptr %8, align 8, !tbaa !15
  store ptr %10, ptr %9, align 8, !tbaa !1216
  %11 = load ptr, ptr %9, align 8, !tbaa !1216
  %12 = getelementptr inbounds nuw %struct.t_methoddata_kweval, ptr %11, i32 0, i32 0
  %13 = load ptr, ptr %12, align 8, !tbaa !1218
  %14 = getelementptr inbounds nuw %struct.gmx_ana_selmethod_t, ptr %13, i32 0, i32 11
  %15 = load ptr, ptr %14, align 8, !tbaa !1230
  %16 = load ptr, ptr %5, align 8, !tbaa !27
  %17 = load ptr, ptr %9, align 8, !tbaa !1216
  %18 = getelementptr inbounds nuw %struct.t_methoddata_kweval, ptr %17, i32 0, i32 2
  %19 = load ptr, ptr %7, align 8, !tbaa !31
  %20 = load ptr, ptr %9, align 8, !tbaa !1216
  %21 = getelementptr inbounds nuw %struct.t_methoddata_kweval, ptr %20, i32 0, i32 1
  %22 = load ptr, ptr %21, align 8, !tbaa !1324
  call void %15(ptr noundef nonnull align 8 dereferenceable(24) %16, ptr noundef %18, ptr noundef %19, ptr noundef %22)
  call void @llvm.lifetime.end.p0(i64 8, ptr %9) #22
  ret void
}