; Function Attrs: mustprogress uwtable
define internal void @_ZL15evaluate_kwevalRKN3gmx20SelMethodEvalContextEP15gmx_ana_index_tP18gmx_ana_selvalue_tPv(ptr noundef nonnull align 8 dereferenceable(24) %0, ptr readnone captures(none) %1, ptr noundef %2, ptr noundef %3) #0 {
  %5 = load ptr, ptr %3, align 8, !tbaa !823
  %6 = getelementptr inbounds nuw i8, ptr %5, i64 80
  %7 = load ptr, ptr %6, align 8, !tbaa !838
  %8 = getelementptr inbounds nuw i8, ptr %3, i64 16
  %9 = getelementptr inbounds nuw i8, ptr %3, i64 8
  %10 = load ptr, ptr %9, align 8, !tbaa !830
  tail call void %7(ptr noundef nonnull align 8 dereferenceable(24) %0, ptr noundef nonnull %8, ptr noundef %2, ptr noundef %10)
  ret void
}